; Function Attrs: mustprogress uwtable
define hidden noundef zeroext i1 @_ZN5arith3sls4flipEbRKNS0_4ineqE(ptr noundef nonnull align 8 dereferenceable(97) %this, i1 noundef zeroext %sign, ptr noundef nonnull align 8 dereferenceable(36) %ineq) local_unnamed_addr #5 align 2 {
entry:
  %new_value = alloca i64, align 8
  %m_var_to_flip = getelementptr inbounds i8, ptr %ineq, i64 32
  %0 = load i32, ptr %m_var_to_flip, align 8
  %cmp = icmp eq i32 %0, -1
  br i1 %cmp, label %if.then, label %if.end11

if.then:                                          ; preds = %entry
  %call = tail call noundef i32 @_Z19get_verbosity_levelv()
  %cmp2.not = icmp eq i32 %call, 0
  br i1 %cmp2.not, label %return, label %if.then3

if.then3:                                         ; preds = %if.then
  %call4 = tail call noundef zeroext i1 @_Z11is_threadedv()
  br i1 %call4, label %if.then5, label %if.else

if.then5:                                         ; preds = %if.then3
  tail call void @_Z12verbose_lockv()
  %call6 = tail call noundef nonnull align 8 dereferenceable(8) ptr @_Z14verbose_streamv()
  %call7 = tail call noundef nonnull align 8 dereferenceable(8) ptr @_ZStlsISt11char_traitsIcEERSt13basic_ostreamIcT_ES5_PKc(ptr noundef nonnull align 8 dereferenceable(8) %call6, ptr noundef nonnull @.str.17)
  tail call void @_Z14verbose_unlockv()
  br label %return

if.else:                                          ; preds = %if.then3
  %call8 = tail call noundef nonnull align 8 dereferenceable(8) ptr @_Z14verbose_streamv()
  %call9 = tail call noundef nonnull align 8 dereferenceable(8) ptr @_ZStlsISt11char_traitsIcEERSt13basic_ostreamIcT_ES5_PKc(ptr noundef nonnull align 8 dereferenceable(8) %call8, ptr noundef nonnull @.str.17)
  br label %return

if.end11:                                         ; preds = %entry
  %1 = load ptr, ptr %ineq, align 8
  %cmp.i.i.i = icmp eq ptr %1, null
  br i1 %cmp.i.i.i, label %if.then13, label %_ZNK6vectorISt4pairIljELb1EjE3endEv.exit.i

_ZNK6vectorISt4pairIljELb1EjE3endEv.exit.i:       ; preds = %if.end11
  %arrayidx.i.i.i = getelementptr inbounds i8, ptr %1, i64 -4
  %2 = load i32, ptr %arrayidx.i.i.i, align 4
  %3 = zext i32 %2 to i64
  %add.ptr.i.i = getelementptr inbounds %"struct.std::pair.251", ptr %1, i64 %3
  %cmp.not8.i = icmp eq i32 %2, 0
  br i1 %cmp.not8.i, label %if.then13, label %for.body.i

for.body.i:                                       ; preds = %_ZNK6vectorISt4pairIljELb1EjE3endEv.exit.i, %for.inc.i
  %__begin1.09.i = phi ptr [ %incdec.ptr.i, %for.inc.i ], [ %1, %_ZNK6vectorISt4pairIljELb1EjE3endEv.exit.i ]
  %second.i.i.i = getelementptr inbounds i8, ptr %__begin1.09.i, i64 8
  %4 = load i32, ptr %second.i.i.i, align 4
  %cmp5.i = icmp eq i32 %4, %0
  br i1 %cmp5.i, label %_ZN5arith3sls2cmEbRKNS0_4ineqEjRl.exit, label %for.inc.i

for.inc.i:                                        ; preds = %for.body.i
  %incdec.ptr.i = getelementptr inbounds i8, ptr %__begin1.09.i, i64 16
  %cmp.not.i = icmp eq ptr %incdec.ptr.i, %add.ptr.i.i
  br i1 %cmp.not.i, label %if.then13, label %for.body.i

_ZN5arith3sls2cmEbRKNS0_4ineqEjRl.exit:           ; preds = %for.body.i
  %5 = load i64, ptr %__begin1.09.i, align 8
  %call6.i = call noundef zeroext i1 @_ZN5arith3sls2cmEbRKNS0_4ineqEjlRl(ptr noundef nonnull align 8 dereferenceable(97) %this, i1 noundef zeroext %sign, ptr noundef nonnull align 8 dereferenceable(36) %ineq, i32 noundef %0, i64 noundef %5, ptr noundef nonnull align 8 dereferenceable(8) %new_value)
  br i1 %call6.i, label %if.end18, label %if.then13

if.then13:                                        ; preds = %for.inc.i, %if.end11, %_ZNK6vectorISt4pairIljELb1EjE3endEv.exit.i, %_ZN5arith3sls2cmEbRKNS0_4ineqEjRl.exit
  %call14 = call noundef nonnull align 8 dereferenceable(8) ptr @_Z14verbose_streamv()
  %call15 = call noundef nonnull align 8 dereferenceable(8) ptr @_ZStlsISt11char_traitsIcEERSt13basic_ostreamIcT_ES5_PKc(ptr noundef nonnull align 8 dereferenceable(8) %call14, ptr noundef nonnull @.str.18)
  %call16 = call noundef nonnull align 8 dereferenceable(8) ptr @_ZNSolsEj(ptr noundef nonnull align 8 dereferenceable(8) %call15, i32 noundef %0)
  %call17 = call noundef nonnull align 8 dereferenceable(8) ptr @_ZStlsISt11char_traitsIcEERSt13basic_ostreamIcT_ES5_PKc(ptr noundef nonnull align 8 dereferenceable(8) %call16, ptr noundef nonnull @.str)
  br label %return

if.end18:                                         ; preds = %_ZN5arith3sls2cmEbRKNS0_4ineqEjRl.exit
  %6 = load i64, ptr %new_value, align 8
  call void @_ZN5arith3sls6updateEjl(ptr noundef nonnull align 8 dereferenceable(97) %this, i32 noundef %0, i64 noundef %6)
  br label %return

return:                                           ; preds = %if.then, %if.else, %if.then5, %if.end18, %if.then13
  %retval.0 = phi i1 [ true, %if.end18 ], [ false, %if.then13 ], [ false, %if.then5 ], [ false, %if.else ], [ false, %if.then ]
  ret i1 %retval.0
}